target datalayout = "e-m:e-p270:32:32-p271:32:32-p272:64:64-i64:64-i128:128-f80:128-n8:16:32:64-S128"
target triple = "x86_64-pc-linux-gnu"

%struct.MvcCoverStruct = type { i32, i32, i32, %struct.MvcListStruct, ptr, i32, ptr, ptr, ptr }
%struct.MvcListStruct = type { ptr, ptr, i32 }
%struct.MvcCubeStruct = type { ptr, i32, i32, [1 x i32] }

; Function Attrs: nounwind uwtable
define i32 @Mvc_CoverCountLiterals(ptr noundef %0) #0 {
  %2 = alloca ptr, align 8
  %3 = alloca ptr, align 8
  %4 = alloca i32, align 4
  %5 = alloca i32, align 4
  %6 = alloca i32, align 4
  %7 = alloca i32, align 4
  %8 = alloca i32, align 4
  store ptr %0, ptr %2, align 8
  store i32 0, ptr %7, align 4
  store i32 0, ptr %6, align 4
  br label %9

9:                                                ; preds = %50, %1
  %10 = load i32, ptr %6, align 4
  %11 = load ptr, ptr %2, align 8
  %12 = getelementptr inbounds %struct.MvcCoverStruct, ptr %11, i32 0, i32 2
  %13 = load i32, ptr %12, align 8
  %14 = icmp slt i32 %10, %13
  br i1 %14, label %15, label %53

15:                                               ; preds = %9
  %16 = load i32, ptr %6, align 4
  %17 = ashr i32 %16, 5
  store i32 %17, ptr %4, align 4
  %18 = load i32, ptr %6, align 4
  %19 = and i32 %18, 31
  store i32 %19, ptr %5, align 4
  store i32 0, ptr %8, align 4
  %20 = load ptr, ptr %2, align 8
  %21 = getelementptr inbounds %struct.MvcCoverStruct, ptr %20, i32 0, i32 3
  %22 = getelementptr inbounds %struct.MvcListStruct, ptr %21, i32 0, i32 0
  %23 = load ptr, ptr %22, align 8
  store ptr %23, ptr %3, align 8
  br label %24

24:                                               ; preds = %42, %15
  %25 = load ptr, ptr %3, align 8
  %26 = icmp ne ptr %25, null
  br i1 %26, label %27, label %46

27:                                               ; preds = %24
  %28 = load ptr, ptr %3, align 8
  %29 = getelementptr inbounds %struct.MvcCubeStruct, ptr %28, i32 0, i32 3
  %30 = load i32, ptr %4, align 4
  %31 = sext i32 %30 to i64
  %32 = getelementptr inbounds [1 x i32], ptr %29, i64 0, i64 %31
  %33 = load i32, ptr %32, align 4
  %34 = load i32, ptr %5, align 4
  %35 = shl i32 1, %34
  %36 = and i32 %33, %35
  %37 = icmp ne i32 %36, 0
  br i1 %37, label %38, label %41

38:                                               ; preds = %27
  %39 = load i32, ptr %8, align 4
  %40 = add nsw i32 %39, 1
  store i32 %40, ptr %8, align 4
  br label %41

41:                                               ; preds = %38, %27
  br label %42

42:                                               ; preds = %41
  %43 = load ptr, ptr %3, align 8
  %44 = getelementptr inbounds %struct.MvcCubeStruct, ptr %43, i32 0, i32 0
  %45 = load ptr, ptr %44, align 8
  store ptr %45, ptr %3, align 8
  br label %24, !llvm.loop !15

46:                                               ; preds = %24
  %47 = load i32, ptr %8, align 4
  %48 = load i32, ptr %7, align 4
  %49 = add nsw i32 %48, %47
  store i32 %49, ptr %7, align 4
  br label %50

50:                                               ; preds = %46
  %51 = load i32, ptr %6, align 4
  %52 = add nsw i32 %51, 1
  store i32 %52, ptr %6, align 4
  br label %9, !llvm.loop !16

53:                                               ; preds = %9
  %54 = load i32, ptr %7, align 4
  ret i32 %54
}