; Function Attrs: nofree norecurse nosync nounwind memory(read, inaccessiblemem: none) uwtable
define i32 @Mvc_CoverCountLiterals(ptr noundef readonly captures(none) %0) local_unnamed_addr #0 {
  %2 = getelementptr inbounds nuw i8, ptr %0, i64 8
  %3 = load i32, ptr %2, align 8
  %4 = icmp sgt i32 %3, 0
  br i1 %4, label %.lr.ph25, label %._crit_edge26

.lr.ph25:                                         ; preds = %1
  %5 = getelementptr inbounds nuw i8, ptr %0, i64 16
  %.01618 = load ptr, ptr %5, align 8
  %.not19 = icmp eq ptr %.01618, null
  br i1 %.not19, label %._crit_edge26, label %.lr.ph

.lr.ph:                                           ; preds = %.lr.ph25, %._crit_edge
  %.01423 = phi i32 [ %15, %._crit_edge ], [ 0, %.lr.ph25 ]
  %.01522 = phi i32 [ %16, %._crit_edge ], [ 0, %.lr.ph25 ]
  %6 = lshr i32 %.01522, 5
  %7 = and i32 %.01522, 31
  %8 = zext nneg i32 %6 to i64
  br label %9

9:                                                ; preds = %.lr.ph, %9
  %.01621 = phi ptr [ %.01618, %.lr.ph ], [ %.016, %9 ]
  %.020 = phi i32 [ 0, %.lr.ph ], [ %spec.select, %9 ]
  %10 = getelementptr inbounds nuw i8, ptr %.01621, i64 16
  %11 = getelementptr inbounds nuw [1 x i32], ptr %10, i64 0, i64 %8
  %12 = load i32, ptr %11, align 4
  %13 = lshr i32 %12, %7
  %14 = and i32 %13, 1
  %spec.select = add nuw nsw i32 %14, %.020
  %.016 = load ptr, ptr %.01621, align 8
  %.not = icmp eq ptr %.016, null
  br i1 %.not, label %._crit_edge, label %9, !llvm.loop !12

._crit_edge:                                      ; preds = %9
  %15 = add nuw nsw i32 %spec.select, %.01423
  %16 = add nuw nsw i32 %.01522, 1
  %exitcond.not = icmp eq i32 %16, %3
  br i1 %exitcond.not, label %._crit_edge26, label %.lr.ph, !llvm.loop !13

._crit_edge26:                                    ; preds = %._crit_edge, %.lr.ph25, %1
  %.014.lcssa = phi i32 [ 0, %1 ], [ 0, %.lr.ph25 ], [ %15, %._crit_edge ]
  ret i32 %.014.lcssa
}